; Function Attrs: mustprogress uwtable
define noundef ptr @ggml_backend_name(ptr noundef %0) local_unnamed_addr #0 {
  %2 = icmp eq ptr %0, null
  br i1 %2, label %7, label %3

3:                                                ; preds = %1
  %4 = getelementptr inbounds nuw i8, ptr %0, i64 8
  %5 = load ptr, ptr %4, align 8, !tbaa !53
  %6 = tail call noundef ptr %5(ptr noundef nonnull %0)
  br label %7

7:                                                ; preds = %1, %3
  %.0 = phi ptr [ %6, %3 ], [ @.str.3, %1 ]
  ret ptr %.0
}